target datalayout = "e-m:e-p270:32:32-p271:32:32-p272:64:64-i64:64-i128:128-f80:128-n8:16:32:64-S128"
target triple = "x86_64-pc-linux-gnu"

@g_Crc64Table = global [256 x i64] zeroinitializer, align 16

; Function Attrs: nounwind uwtable
define void @Crc64GenerateTable() #0 {
  %1 = alloca i32, align 4
  %2 = alloca i64, align 8
  %3 = alloca i32, align 4
  store i32 0, ptr %1, align 4
  br label %4

4:                                                ; preds = %30, %0
  %5 = load i32, ptr %1, align 4
  %6 = icmp ult i32 %5, 256
  br i1 %6, label %7, label %33

7:                                                ; preds = %4
  %8 = load i32, ptr %1, align 4
  %9 = zext i32 %8 to i64
  store i64 %9, ptr %2, align 8
  store i32 0, ptr %3, align 4
  br label %10

10:                                               ; preds = %22, %7
  %11 = load i32, ptr %3, align 4
  %12 = icmp slt i32 %11, 8
  br i1 %12, label %13, label %25

13:                                               ; preds = %10
  %14 = load i64, ptr %2, align 8
  %15 = lshr i64 %14, 1
  %16 = load i64, ptr %2, align 8
  %17 = and i64 %16, 1
  %18 = sub i64 %17, 1
  %19 = xor i64 %18, -1
  %20 = and i64 -3932672073523589310, %19
  %21 = xor i64 %15, %20
  store i64 %21, ptr %2, align 8
  br label %22

22:                                               ; preds = %13
  %23 = load i32, ptr %3, align 4
  %24 = add nsw i32 %23, 1
  store i32 %24, ptr %3, align 4
  br label %10

25:                                               ; preds = %10
  %26 = load i64, ptr %2, align 8
  %27 = load i32, ptr %1, align 4
  %28 = zext i32 %27 to i64
  %29 = getelementptr inbounds [256 x i64], ptr @g_Crc64Table, i64 0, i64 %28
  store i64 %26, ptr %29, align 8
  br label %30

30:                                               ; preds = %25
  %31 = load i32, ptr %1, align 4
  %32 = add i32 %31, 1
  store i32 %32, ptr %1, align 4
  br label %4

33:                                               ; preds = %4
  ret void
}

; Function Attrs: nounwind uwtable
define i64 @Crc64Update(i64 noundef %0, ptr noundef %1, i64 noundef %2) #0 {
  %4 = alloca i64, align 8
  %5 = alloca ptr, align 8
  %6 = alloca i64, align 8
  %7 = alloca ptr, align 8
  store i64 %0, ptr %4, align 8
  store ptr %1, ptr %5, align 8
  store i64 %2, ptr %6, align 8
  %8 = load ptr, ptr %5, align 8
  store ptr %8, ptr %7, align 8
  br label %9

9:                                                ; preds = %24, %3
  %10 = load i64, ptr %6, align 8
  %11 = icmp ugt i64 %10, 0
  br i1 %11, label %12, label %29

12:                                               ; preds = %9
  %13 = load i64, ptr %4, align 8
  %14 = load ptr, ptr %7, align 8
  %15 = load i8, ptr %14, align 1
  %16 = zext i8 %15 to i64
  %17 = xor i64 %13, %16
  %18 = and i64 %17, 255
  %19 = getelementptr inbounds [256 x i64], ptr @g_Crc64Table, i64 0, i64 %18
  %20 = load i64, ptr %19, align 8
  %21 = load i64, ptr %4, align 8
  %22 = lshr i64 %21, 8
  %23 = xor i64 %20, %22
  store i64 %23, ptr %4, align 8
  br label %24

24:                                               ; preds = %12
  %25 = load i64, ptr %6, align 8
  %26 = add i64 %25, -1
  store i64 %26, ptr %6, align 8
  %27 = load ptr, ptr %7, align 8
  %28 = getelementptr inbounds i8, ptr %27, i32 1
  store ptr %28, ptr %7, align 8
  br label %9

29:                                               ; preds = %9
  %30 = load i64, ptr %4, align 8
  ret i64 %30
}

; Function Attrs: nounwind uwtable
define i64 @Crc64Calc(ptr noundef %0, i64 noundef %1) #0 {
  %3 = alloca ptr, align 8
  %4 = alloca i64, align 8
  store ptr %0, ptr %3, align 8
  store i64 %1, ptr %4, align 8
  %5 = load ptr, ptr %3, align 8
  %6 = load i64, ptr %4, align 8
  %7 = call i64 @Crc64Update(i64 noundef -1, ptr noundef %5, i64 noundef %6)
  %8 = xor i64 %7, -1
  ret i64 %8
}


!llvm.module.flags = !{!0, !1, !2, !3}

!0 = !{i32 1, !"wchar_size", i32 4}
!1 = !{i32 8, !"PIC Level", i32 2}
!2 = !{i32 7, !"uwtable", i32 2}
!3 = !{i32 7, !"frame-pointer", i32 2}
